; Function Attrs: nofree norecurse nosync nounwind memory(read, inaccessiblemem: none) uwtable
define range(i32 0, 2) i32 @Wlc_ObjHasArithmFanins(ptr noundef readonly captures(none) %0, ptr noundef readonly captures(none) %1) local_unnamed_addr #1 {
  %3 = getelementptr i8, ptr %1, i64 4
  %.val9 = load i32, ptr %3, align 4, !tbaa !23
  %4 = icmp sgt i32 %.val9, 0
  br i1 %4, label %.lr.ph, label %.critedge

.lr.ph:                                           ; preds = %2
  %5 = icmp samesign ugt i32 %.val9, 2
  %6 = getelementptr inbounds nuw i8, ptr %1, i64 16
  %7 = getelementptr i8, ptr %0, i64 640
  %.val = load ptr, ptr %7, align 8, !tbaa !11
  br i1 %5, label %.lr.ph.split.us, label %.lr.ph.split

.lr.ph.split.us:                                  ; preds = %.lr.ph
  %8 = load ptr, ptr %6, align 8, !tbaa !25
  %wide.trip.count44 = zext nneg i32 %.val9 to i64
  br label %Wlc_ObjHasArray.exit.thread.i.i.us

Wlc_ObjHasArray.exit.thread.i.i.us:               ; preds = %Wlc_ObjHasArithm_rec.exit.thread.us, %.lr.ph.split.us
  %indvars.iv41 = phi i64 [ %indvars.iv.next42, %Wlc_ObjHasArithm_rec.exit.thread.us ], [ 0, %.lr.ph.split.us ]
  %9 = getelementptr inbounds nuw i32, ptr %8, i64 %indvars.iv41
  br label %tailrecurse.i.us

tailrecurse.i.us:                                 ; preds = %tailrecurse.i.us.backedge, %Wlc_ObjHasArray.exit.thread.i.i.us
  %.pn.in.in.us = phi ptr [ %9, %Wlc_ObjHasArray.exit.thread.i.i.us ], [ %.pn.in.in.us.be, %tailrecurse.i.us.backedge ]
  %.pn.in.us = load i32, ptr %.pn.in.in.us, align 4, !tbaa !20
  %.pn.us = sext i32 %.pn.in.us to i64
  %.tr13.i.us = getelementptr inbounds %struct.Wlc_Obj_t_, ptr %.val, i64 %.pn.us
  %10 = load i16, ptr %.tr13.i.us, align 8
  %11 = and i16 %10, 63
  switch i16 %11, label %Wlc_ObjHasArithm_rec.exit.thread.us [
    i16 50, label %.critedge
    i16 7, label %12
    i16 15, label %12
    i16 24, label %12
    i16 25, label %12
    i16 43, label %.critedge
    i16 44, label %.critedge
    i16 45, label %.critedge
  ]

12:                                               ; preds = %tailrecurse.i.us, %tailrecurse.i.us, %tailrecurse.i.us, %tailrecurse.i.us
  %13 = getelementptr inbounds nuw i8, ptr %.tr13.i.us, i64 4
  %14 = load i32, ptr %13, align 4, !tbaa !23
  %15 = icmp ugt i32 %14, 2
  %cond.i.us = icmp eq i16 %11, 22
  %or.cond.i.us = or i1 %cond.i.us, %15
  %16 = getelementptr inbounds nuw i8, ptr %.tr13.i.us, i64 16
  br i1 %or.cond.i.us, label %Wlc_ObjHasArray.exit.thread.i.i.i.i.us, label %tailrecurse.i.us.backedge

Wlc_ObjHasArray.exit.thread.i.i.i.i.us:           ; preds = %12
  %17 = load ptr, ptr %16, align 8, !tbaa !25
  br label %tailrecurse.i.us.backedge

tailrecurse.i.us.backedge:                        ; preds = %Wlc_ObjHasArray.exit.thread.i.i.i.i.us, %12
  %.pn.in.in.us.be = phi ptr [ %17, %Wlc_ObjHasArray.exit.thread.i.i.i.i.us ], [ %16, %12 ]
  br label %tailrecurse.i.us

Wlc_ObjHasArithm_rec.exit.thread.us:              ; preds = %tailrecurse.i.us
  %indvars.iv.next42 = add nuw nsw i64 %indvars.iv41, 1
  %exitcond45.not = icmp eq i64 %indvars.iv.next42, %wide.trip.count44
  br i1 %exitcond45.not, label %.critedge, label %Wlc_ObjHasArray.exit.thread.i.i.us, !llvm.loop !26

.lr.ph.split:                                     ; preds = %.lr.ph
  %18 = load i16, ptr %1, align 8
  %19 = and i16 %18, 63
  switch i16 %19, label %Wlc_ObjFaninId.exit.preheader [
    i16 6, label %.lr.ph.split.split.us
    i16 22, label %.lr.ph.split.split.us
  ]

Wlc_ObjFaninId.exit.preheader:                    ; preds = %.lr.ph.split
  %wide.trip.count39 = zext nneg i32 %.val9 to i64
  br label %Wlc_ObjFaninId.exit

.lr.ph.split.split.us:                            ; preds = %.lr.ph.split, %.lr.ph.split
  %20 = load ptr, ptr %6, align 8, !tbaa !25
  %wide.trip.count = zext nneg i32 %.val9 to i64
  br label %Wlc_ObjHasArray.exit.thread.i.i.us18

Wlc_ObjHasArray.exit.thread.i.i.us18:             ; preds = %Wlc_ObjHasArithm_rec.exit.thread.us29, %.lr.ph.split.split.us
  %indvars.iv = phi i64 [ %indvars.iv.next, %Wlc_ObjHasArithm_rec.exit.thread.us29 ], [ 0, %.lr.ph.split.split.us ]
  %21 = getelementptr inbounds nuw i32, ptr %20, i64 %indvars.iv
  br label %tailrecurse.i.us20

tailrecurse.i.us20:                               ; preds = %tailrecurse.i.us20.backedge, %Wlc_ObjHasArray.exit.thread.i.i.us18
  %.pn.in.in.us21 = phi ptr [ %21, %Wlc_ObjHasArray.exit.thread.i.i.us18 ], [ %.pn.in.in.us21.be, %tailrecurse.i.us20.backedge ]
  %.pn.in.us22 = load i32, ptr %.pn.in.in.us21, align 4, !tbaa !20
  %.pn.us23 = sext i32 %.pn.in.us22 to i64
  %.tr13.i.us24 = getelementptr inbounds %struct.Wlc_Obj_t_, ptr %.val, i64 %.pn.us23
  %22 = load i16, ptr %.tr13.i.us24, align 8
  %23 = and i16 %22, 63
  switch i16 %23, label %Wlc_ObjHasArithm_rec.exit.thread.us29 [
    i16 50, label %.critedge
    i16 7, label %24
    i16 15, label %24
    i16 24, label %24
    i16 25, label %24
    i16 43, label %.critedge
    i16 44, label %.critedge
    i16 45, label %.critedge
  ]

24:                                               ; preds = %tailrecurse.i.us20, %tailrecurse.i.us20, %tailrecurse.i.us20, %tailrecurse.i.us20
  %25 = getelementptr inbounds nuw i8, ptr %.tr13.i.us24, i64 4
  %26 = load i32, ptr %25, align 4, !tbaa !23
  %27 = icmp ugt i32 %26, 2
  %cond.i.us25 = icmp eq i16 %23, 22
  %or.cond.i.us26 = or i1 %cond.i.us25, %27
  %28 = getelementptr inbounds nuw i8, ptr %.tr13.i.us24, i64 16
  br i1 %or.cond.i.us26, label %Wlc_ObjHasArray.exit.thread.i.i.i.i.us27, label %tailrecurse.i.us20.backedge

Wlc_ObjHasArray.exit.thread.i.i.i.i.us27:         ; preds = %24
  %29 = load ptr, ptr %28, align 8, !tbaa !25
  br label %tailrecurse.i.us20.backedge

tailrecurse.i.us20.backedge:                      ; preds = %Wlc_ObjHasArray.exit.thread.i.i.i.i.us27, %24
  %.pn.in.in.us21.be = phi ptr [ %29, %Wlc_ObjHasArray.exit.thread.i.i.i.i.us27 ], [ %28, %24 ]
  br label %tailrecurse.i.us20

Wlc_ObjHasArithm_rec.exit.thread.us29:            ; preds = %tailrecurse.i.us20
  %indvars.iv.next = add nuw nsw i64 %indvars.iv, 1
  %exitcond.not = icmp eq i64 %indvars.iv.next, %wide.trip.count
  br i1 %exitcond.not, label %.critedge, label %Wlc_ObjHasArray.exit.thread.i.i.us18, !llvm.loop !26

Wlc_ObjFaninId.exit:                              ; preds = %Wlc_ObjFaninId.exit.preheader, %Wlc_ObjHasArithm_rec.exit.thread
  %indvars.iv36 = phi i64 [ 0, %Wlc_ObjFaninId.exit.preheader ], [ %indvars.iv.next37, %Wlc_ObjHasArithm_rec.exit.thread ]
  %30 = getelementptr inbounds nuw i32, ptr %6, i64 %indvars.iv36
  br label %tailrecurse.i

tailrecurse.i:                                    ; preds = %tailrecurse.i.backedge, %Wlc_ObjFaninId.exit
  %.pn.in.in = phi ptr [ %30, %Wlc_ObjFaninId.exit ], [ %.pn.in.in.be, %tailrecurse.i.backedge ]
  %.pn.in = load i32, ptr %.pn.in.in, align 4, !tbaa !20
  %.pn = sext i32 %.pn.in to i64
  %.tr13.i = getelementptr inbounds %struct.Wlc_Obj_t_, ptr %.val, i64 %.pn
  %31 = load i16, ptr %.tr13.i, align 8
  %32 = and i16 %31, 63
  switch i16 %32, label %Wlc_ObjHasArithm_rec.exit.thread [
    i16 50, label %.critedge
    i16 7, label %33
    i16 15, label %33
    i16 24, label %33
    i16 25, label %33
    i16 43, label %.critedge
    i16 44, label %.critedge
    i16 45, label %.critedge
  ]

33:                                               ; preds = %tailrecurse.i, %tailrecurse.i, %tailrecurse.i, %tailrecurse.i
  %34 = getelementptr inbounds nuw i8, ptr %.tr13.i, i64 4
  %35 = load i32, ptr %34, align 4, !tbaa !23
  %36 = icmp ugt i32 %35, 2
  %cond.i = icmp eq i16 %32, 22
  %or.cond.i = or i1 %cond.i, %36
  %37 = getelementptr inbounds nuw i8, ptr %.tr13.i, i64 16
  br i1 %or.cond.i, label %Wlc_ObjHasArray.exit.thread.i.i.i.i, label %tailrecurse.i.backedge

Wlc_ObjHasArray.exit.thread.i.i.i.i:              ; preds = %33
  %38 = load ptr, ptr %37, align 8, !tbaa !25
  br label %tailrecurse.i.backedge

tailrecurse.i.backedge:                           ; preds = %Wlc_ObjHasArray.exit.thread.i.i.i.i, %33
  %.pn.in.in.be = phi ptr [ %38, %Wlc_ObjHasArray.exit.thread.i.i.i.i ], [ %37, %33 ]
  br label %tailrecurse.i

Wlc_ObjHasArithm_rec.exit.thread:                 ; preds = %tailrecurse.i
  %indvars.iv.next37 = add nuw nsw i64 %indvars.iv36, 1
  %exitcond40.not = icmp eq i64 %indvars.iv.next37, %wide.trip.count39
  br i1 %exitcond40.not, label %.critedge, label %Wlc_ObjFaninId.exit, !llvm.loop !26

.critedge:                                        ; preds = %Wlc_ObjHasArithm_rec.exit.thread.us29, %tailrecurse.i.us20, %tailrecurse.i.us20, %tailrecurse.i.us20, %tailrecurse.i.us20, %Wlc_ObjHasArithm_rec.exit.thread, %tailrecurse.i, %tailrecurse.i, %tailrecurse.i, %tailrecurse.i, %Wlc_ObjHasArithm_rec.exit.thread.us, %tailrecurse.i.us, %tailrecurse.i.us, %tailrecurse.i.us, %tailrecurse.i.us, %2
  %.08 = phi i32 [ 0, %2 ], [ 1, %tailrecurse.i.us ], [ 1, %tailrecurse.i.us ], [ 1, %tailrecurse.i.us ], [ 1, %tailrecurse.i.us ], [ 0, %Wlc_ObjHasArithm_rec.exit.thread.us ], [ 1, %tailrecurse.i ], [ 1, %tailrecurse.i ], [ 1, %tailrecurse.i ], [ 1, %tailrecurse.i ], [ 0, %Wlc_ObjHasArithm_rec.exit.thread ], [ 1, %tailrecurse.i.us20 ], [ 1, %tailrecurse.i.us20 ], [ 1, %tailrecurse.i.us20 ], [ 1, %tailrecurse.i.us20 ], [ 0, %Wlc_ObjHasArithm_rec.exit.thread.us29 ]
  ret i32 %.08
}